target datalayout = "e-m:e-p270:32:32-p271:32:32-p272:64:64-i64:64-i128:128-f80:128-n8:16:32:64-S128"
target triple = "x86_64-pc-linux-gnu"

; Function Attrs: alwaysinline nounwind willreturn memory(none) uwtable
define internal zeroext i16 @av_bswap16(i16 noundef zeroext %0) #4 {
  %2 = alloca i16, align 2
  store i16 %0, ptr %2, align 2, !tbaa !44
  %3 = load i16, ptr %2, align 2, !tbaa !44
  %4 = zext i16 %3 to i32
  %5 = ashr i32 %4, 8
  %6 = load i16, ptr %2, align 2, !tbaa !44
  %7 = zext i16 %6 to i32
  %8 = shl i32 %7, 8
  %9 = or i32 %5, %8
  %10 = trunc i32 %9 to i16
  store i16 %10, ptr %2, align 2, !tbaa !44
  %11 = load i16, ptr %2, align 2, !tbaa !44
  ret i16 %11
}

; Function Attrs: nounwind uwtable
define internal void @p016BEToUV_c(ptr noundef %0, ptr noundef %1, ptr noundef %2, ptr noundef %3, ptr noundef %4, i32 noundef %5, ptr noundef %6, ptr noundef %7) #2 {
  %9 = alloca ptr, align 8
  %10 = alloca ptr, align 8
  %11 = alloca ptr, align 8
  %12 = alloca ptr, align 8
  %13 = alloca ptr, align 8
  %14 = alloca i32, align 4
  %15 = alloca ptr, align 8
  %16 = alloca ptr, align 8
  %17 = alloca i32, align 4
  store ptr %0, ptr %9, align 8, !tbaa !34
  store ptr %1, ptr %10, align 8, !tbaa !34
  store ptr %2, ptr %11, align 8, !tbaa !34
  store ptr %3, ptr %12, align 8, !tbaa !34
  store ptr %4, ptr %13, align 8, !tbaa !34
  store i32 %5, ptr %14, align 4, !tbaa !30
  store ptr %6, ptr %15, align 8, !tbaa !35
  store ptr %7, ptr %16, align 8, !tbaa !31
  call void @llvm.lifetime.start.p0(i64 4, ptr %17) #9
  store i32 0, ptr %17, align 4, !tbaa !30
  br label %18

18:                                               ; preds = %55, %8
  %19 = load i32, ptr %17, align 4, !tbaa !30
  %20 = load i32, ptr %14, align 4, !tbaa !30
  %21 = icmp slt i32 %19, %20
  br i1 %21, label %22, label %58

22:                                               ; preds = %18
  %23 = load ptr, ptr %12, align 8, !tbaa !34
  %24 = load i32, ptr %17, align 4, !tbaa !30
  %25 = mul nsw i32 %24, 4
  %26 = sext i32 %25 to i64
  %27 = getelementptr inbounds i8, ptr %23, i64 %26
  %28 = getelementptr inbounds i8, ptr %27, i64 0
  %29 = load i16, ptr %28, align 1, !tbaa !36
  %30 = call zeroext i16 @av_bswap16(i16 noundef zeroext %29) #10
  %31 = zext i16 %30 to i32
  %32 = ashr i32 %31, 0
  %33 = trunc i32 %32 to i16
  %34 = load ptr, ptr %9, align 8, !tbaa !34
  %35 = load i32, ptr %17, align 4, !tbaa !30
  %36 = mul nsw i32 %35, 2
  %37 = sext i32 %36 to i64
  %38 = getelementptr inbounds i8, ptr %34, i64 %37
  store i16 %33, ptr %38, align 1, !tbaa !36
  %39 = load ptr, ptr %12, align 8, !tbaa !34
  %40 = load i32, ptr %17, align 4, !tbaa !30
  %41 = mul nsw i32 %40, 4
  %42 = sext i32 %41 to i64
  %43 = getelementptr inbounds i8, ptr %39, i64 %42
  %44 = getelementptr inbounds i8, ptr %43, i64 2
  %45 = load i16, ptr %44, align 1, !tbaa !36
  %46 = call zeroext i16 @av_bswap16(i16 noundef zeroext %45) #10
  %47 = zext i16 %46 to i32
  %48 = ashr i32 %47, 0
  %49 = trunc i32 %48 to i16
  %50 = load ptr, ptr %10, align 8, !tbaa !34
  %51 = load i32, ptr %17, align 4, !tbaa !30
  %52 = mul nsw i32 %51, 2
  %53 = sext i32 %52 to i64
  %54 = getelementptr inbounds i8, ptr %50, i64 %53
  store i16 %49, ptr %54, align 1, !tbaa !36
  br label %55

55:                                               ; preds = %22
  %56 = load i32, ptr %17, align 4, !tbaa !30
  %57 = add nsw i32 %56, 1
  store i32 %57, ptr %17, align 4, !tbaa !30
  br label %18, !llvm.loop !65

58:                                               ; preds = %18
  call void @llvm.lifetime.end.p0(i64 4, ptr %17) #9
  ret void
}